target datalayout = "e-m:e-p270:32:32-p271:32:32-p272:64:64-i64:64-i128:128-f80:128-n8:16:32:64-S128"
target triple = "x86_64-pc-linux-gnu"

%struct.pmix_object_t = type { %union.pthread_mutex_t, ptr, i32, %struct.pmix_tma }
%union.pthread_mutex_t = type { %struct.__pthread_mutex_s }
%struct.__pthread_mutex_s = type { i32, i32, i32, i32, i32, i16, i16, %struct.__pthread_internal_list }
%struct.__pthread_internal_list = type { ptr, ptr }
%struct.pmix_tma = type { ptr, ptr, ptr, ptr, ptr, ptr, ptr, ptr }
%struct.pmix_bfrop_type_info_t = type { %struct.pmix_object_t, i16, ptr, ptr, ptr, ptr, ptr }
%struct.pmix_pointer_array_t = type { %struct.pmix_object_t, i32, i32, i32, i32, i32, ptr, ptr }
%struct.pmix_data_buffer = type { ptr, ptr, ptr, i64, i64 }

@.str.6 = private unnamed_addr constant [37 x i8] c"PMIX ERROR: %s in file %s at line %d\00", align 1
@.str.7 = private unnamed_addr constant [25 x i8] c"base/bfrop_base_unpack.c\00", align 1

; Function Attrs: inlinehint nounwind uwtable
define internal ptr @pmix_pointer_array_get_item(ptr noundef %0, i32 noundef %1) #3 {
  %3 = alloca ptr, align 8
  %4 = alloca ptr, align 8
  %5 = alloca i32, align 4
  %6 = alloca ptr, align 8
  %7 = alloca i32, align 4
  store ptr %0, ptr %4, align 8, !tbaa !3
  store i32 %1, ptr %5, align 4, !tbaa !13
  call void @llvm.lifetime.start.p0(i64 8, ptr %6) #11
  %8 = load i32, ptr %5, align 4, !tbaa !13
  %9 = icmp sgt i32 0, %8
  br i1 %9, label %16, label %10

10:                                               ; preds = %2
  %11 = load ptr, ptr %4, align 8, !tbaa !3
  %12 = getelementptr inbounds nuw %struct.pmix_pointer_array_t, ptr %11, i32 0, i32 3
  %13 = load i32, ptr %12, align 8, !tbaa !33
  %14 = load i32, ptr %5, align 4, !tbaa !13
  %15 = icmp sle i32 %13, %14
  br label %16

16:                                               ; preds = %10, %2
  %17 = phi i1 [ true, %2 ], [ %15, %10 ]
  %18 = xor i1 %17, true
  %19 = xor i1 %18, true
  %20 = zext i1 %19 to i32
  %21 = sext i32 %20 to i64
  %22 = call i64 @llvm.expect.i64(i64 %21, i64 0)
  %23 = icmp ne i64 %22, 0
  br i1 %23, label %24, label %25

24:                                               ; preds = %16
  store ptr null, ptr %3, align 8
  store i32 1, ptr %7, align 4
  br label %34

25:                                               ; preds = %16
  %26 = load ptr, ptr %4, align 8, !tbaa !3
  %27 = getelementptr inbounds nuw %struct.pmix_pointer_array_t, ptr %26, i32 0, i32 7
  %28 = load ptr, ptr %27, align 8, !tbaa !36
  %29 = load i32, ptr %5, align 4, !tbaa !13
  %30 = sext i32 %29 to i64
  %31 = getelementptr inbounds ptr, ptr %28, i64 %30
  %32 = load ptr, ptr %31, align 8, !tbaa !8
  store ptr %32, ptr %6, align 8, !tbaa !8
  %33 = load ptr, ptr %6, align 8, !tbaa !8
  store ptr %33, ptr %3, align 8
  store i32 1, ptr %7, align 4
  br label %34

34:                                               ; preds = %25, %24
  call void @llvm.lifetime.end.p0(i64 8, ptr %6) #11
  %35 = load ptr, ptr %3, align 8
  ret ptr %35
}

; Function Attrs: nounwind uwtable
define i32 @pmix_bfrops_base_unpack_dbuf(ptr noundef %0, ptr noundef %1, ptr noundef %2, ptr noundef %3, i16 noundef zeroext %4) #0 {
  %6 = alloca i32, align 4
  %7 = alloca ptr, align 8
  %8 = alloca ptr, align 8
  %9 = alloca ptr, align 8
  %10 = alloca ptr, align 8
  %11 = alloca i16, align 2
  %12 = alloca ptr, align 8
  %13 = alloca i32, align 4
  %14 = alloca i32, align 4
  %15 = alloca i32, align 4
  %16 = alloca i32, align 4
  %17 = alloca ptr, align 8
  %18 = alloca i32, align 4
  %19 = alloca ptr, align 8
  store ptr %0, ptr %7, align 8, !tbaa !3
  store ptr %1, ptr %8, align 8, !tbaa !8
  store ptr %2, ptr %9, align 8, !tbaa !8
  store ptr %3, ptr %10, align 8, !tbaa !9
  store i16 %4, ptr %11, align 2, !tbaa !11
  call void @llvm.lifetime.start.p0(i64 8, ptr %12) #11
  %20 = load ptr, ptr %9, align 8, !tbaa !8
  store ptr %20, ptr %12, align 8, !tbaa !224
  call void @llvm.lifetime.start.p0(i64 4, ptr %13) #11
  call void @llvm.lifetime.start.p0(i64 4, ptr %14) #11
  call void @llvm.lifetime.start.p0(i64 4, ptr %15) #11
  call void @llvm.lifetime.start.p0(i64 4, ptr %16) #11
  %21 = load ptr, ptr %10, align 8, !tbaa !9
  %22 = load i32, ptr %21, align 4, !tbaa !13
  store i32 %22, ptr %15, align 4, !tbaa !13
  store i32 0, ptr %13, align 4, !tbaa !13
  br label %23

23:                                               ; preds = %118, %5
  %24 = load i32, ptr %13, align 4, !tbaa !13
  %25 = load i32, ptr %15, align 4, !tbaa !13
  %26 = icmp slt i32 %24, %25
  br i1 %26, label %27, label %121

27:                                               ; preds = %23
  store i32 1, ptr %14, align 4, !tbaa !13
  br label %28

28:                                               ; preds = %27
  call void @llvm.lifetime.start.p0(i64 8, ptr %17) #11
  %29 = load ptr, ptr %7, align 8, !tbaa !3
  %30 = call ptr @pmix_pointer_array_get_item(ptr noundef %29, i32 noundef 4)
  store ptr %30, ptr %17, align 8, !tbaa !8
  %31 = load ptr, ptr %17, align 8, !tbaa !8
  %32 = icmp eq ptr null, %31
  br i1 %32, label %33, label %34

33:                                               ; preds = %28
  store i32 -16, ptr %16, align 4, !tbaa !13
  br label %46

34:                                               ; preds = %28
  %35 = load ptr, ptr %17, align 8, !tbaa !8
  %36 = getelementptr inbounds nuw %struct.pmix_bfrop_type_info_t, ptr %35, i32 0, i32 4
  %37 = load ptr, ptr %36, align 8, !tbaa !31
  %38 = load ptr, ptr %7, align 8, !tbaa !3
  %39 = load ptr, ptr %8, align 8, !tbaa !8
  %40 = load ptr, ptr %12, align 8, !tbaa !224
  %41 = load i32, ptr %13, align 4, !tbaa !13
  %42 = sext i32 %41 to i64
  %43 = getelementptr inbounds %struct.pmix_data_buffer, ptr %40, i64 %42
  %44 = getelementptr inbounds nuw %struct.pmix_data_buffer, ptr %43, i32 0, i32 4
  %45 = call i32 %37(ptr noundef %38, ptr noundef %39, ptr noundef %44, ptr noundef %14, i16 noundef zeroext 4)
  store i32 %45, ptr %16, align 4, !tbaa !13
  br label %46

46:                                               ; preds = %34, %33
  call void @llvm.lifetime.end.p0(i64 8, ptr %17) #11
  br label %47

47:                                               ; preds = %46
  br label %48

48:                                               ; preds = %47
  %49 = load i32, ptr %16, align 4, !tbaa !13
  %50 = icmp ne i32 0, %49
  br i1 %50, label %51, label %62

51:                                               ; preds = %48
  br label %52

52:                                               ; preds = %51
  %53 = load i32, ptr %16, align 4, !tbaa !13
  %54 = icmp ne i32 -2, %53
  br i1 %54, label %55, label %58

55:                                               ; preds = %52
  %56 = load i32, ptr %16, align 4, !tbaa !13
  %57 = call ptr @PMIx_Error_string(i32 noundef %56)
  call void (i32, ptr, ...) @pmix_output(i32 noundef 0, ptr noundef @.str.6, ptr noundef %57, ptr noundef @.str.7, i32 noundef 2347)
  br label %58

58:                                               ; preds = %55, %52
  br label %59

59:                                               ; preds = %58
  br label %60

60:                                               ; preds = %59
  %61 = load i32, ptr %16, align 4, !tbaa !13
  store i32 %61, ptr %6, align 4
  store i32 1, ptr %18, align 4
  br label %122

62:                                               ; preds = %48
  %63 = load ptr, ptr %12, align 8, !tbaa !224
  %64 = load i32, ptr %13, align 4, !tbaa !13
  %65 = sext i32 %64 to i64
  %66 = getelementptr inbounds %struct.pmix_data_buffer, ptr %63, i64 %65
  %67 = getelementptr inbounds nuw %struct.pmix_data_buffer, ptr %66, i32 0, i32 4
  %68 = load i64, ptr %67, align 8, !tbaa !226
  %69 = icmp ult i64 0, %68
  br i1 %69, label %70, label %117

70:                                               ; preds = %62
  %71 = load ptr, ptr %12, align 8, !tbaa !224
  %72 = load i32, ptr %13, align 4, !tbaa !13
  %73 = sext i32 %72 to i64
  %74 = getelementptr inbounds %struct.pmix_data_buffer, ptr %71, i64 %73
  %75 = getelementptr inbounds nuw %struct.pmix_data_buffer, ptr %74, i32 0, i32 4
  %76 = load i64, ptr %75, align 8, !tbaa !226
  %77 = call noalias ptr @malloc(i64 noundef %76) #14
  %78 = load ptr, ptr %12, align 8, !tbaa !224
  %79 = load i32, ptr %13, align 4, !tbaa !13
  %80 = sext i32 %79 to i64
  %81 = getelementptr inbounds %struct.pmix_data_buffer, ptr %78, i64 %80
  %82 = getelementptr inbounds nuw %struct.pmix_data_buffer, ptr %81, i32 0, i32 0
  store ptr %77, ptr %82, align 8, !tbaa !228
  %83 = load ptr, ptr %12, align 8, !tbaa !224
  %84 = load i32, ptr %13, align 4, !tbaa !13
  %85 = sext i32 %84 to i64
  %86 = getelementptr inbounds %struct.pmix_data_buffer, ptr %83, i64 %85
  %87 = getelementptr inbounds nuw %struct.pmix_data_buffer, ptr %86, i32 0, i32 4
  %88 = load i64, ptr %87, align 8, !tbaa !226
  %89 = trunc i64 %88 to i32
  store i32 %89, ptr %14, align 4, !tbaa !13
  br label %90

90:                                               ; preds = %70
  call void @llvm.lifetime.start.p0(i64 8, ptr %19) #11
  %91 = load ptr, ptr %7, align 8, !tbaa !3
  %92 = call ptr @pmix_pointer_array_get_item(ptr noundef %91, i32 noundef 2)
  store ptr %92, ptr %19, align 8, !tbaa !8
  %93 = load ptr, ptr %19, align 8, !tbaa !8
  %94 = icmp eq ptr null, %93
  br i1 %94, label %95, label %96

95:                                               ; preds = %90
  store i32 -16, ptr %16, align 4, !tbaa !13
  br label %109

96:                                               ; preds = %90
  %97 = load ptr, ptr %19, align 8, !tbaa !8
  %98 = getelementptr inbounds nuw %struct.pmix_bfrop_type_info_t, ptr %97, i32 0, i32 4
  %99 = load ptr, ptr %98, align 8, !tbaa !31
  %100 = load ptr, ptr %7, align 8, !tbaa !3
  %101 = load ptr, ptr %8, align 8, !tbaa !8
  %102 = load ptr, ptr %12, align 8, !tbaa !224
  %103 = load i32, ptr %13, align 4, !tbaa !13
  %104 = sext i32 %103 to i64
  %105 = getelementptr inbounds %struct.pmix_data_buffer, ptr %102, i64 %104
  %106 = getelementptr inbounds nuw %struct.pmix_data_buffer, ptr %105, i32 0, i32 0
  %107 = load ptr, ptr %106, align 8, !tbaa !228
  %108 = call i32 %99(ptr noundef %100, ptr noundef %101, ptr noundef %107, ptr noundef %14, i16 noundef zeroext 2)
  store i32 %108, ptr %16, align 4, !tbaa !13
  br label %109

109:                                              ; preds = %96, %95
  call void @llvm.lifetime.end.p0(i64 8, ptr %19) #11
  br label %110

110:                                              ; preds = %109
  br label %111

111:                                              ; preds = %110
  %112 = load i32, ptr %16, align 4, !tbaa !13
  %113 = icmp ne i32 0, %112
  br i1 %113, label %114, label %116

114:                                              ; preds = %111
  %115 = load i32, ptr %16, align 4, !tbaa !13
  store i32 %115, ptr %6, align 4
  store i32 1, ptr %18, align 4
  br label %122

116:                                              ; preds = %111
  br label %117

117:                                              ; preds = %116, %62
  br label %118

118:                                              ; preds = %117
  %119 = load i32, ptr %13, align 4, !tbaa !13
  %120 = add nsw i32 %119, 1
  store i32 %120, ptr %13, align 4, !tbaa !13
  br label %23, !llvm.loop !229

121:                                              ; preds = %23
  store i32 0, ptr %6, align 4
  store i32 1, ptr %18, align 4
  br label %122

122:                                              ; preds = %121, %114, %60
  call void @llvm.lifetime.end.p0(i64 4, ptr %16) #11
  call void @llvm.lifetime.end.p0(i64 4, ptr %15) #11
  call void @llvm.lifetime.end.p0(i64 4, ptr %14) #11
  call void @llvm.lifetime.end.p0(i64 4, ptr %13) #11
  call void @llvm.lifetime.end.p0(i64 8, ptr %12) #11
  %123 = load i32, ptr %6, align 4
  ret i32 %123
}