; Function Attrs: nounwind uwtable
define i32 @pmix_bfrops_base_unpack_dbuf(ptr noundef %0, ptr noundef %1, ptr noundef %2, ptr noundef readonly captures(none) %3, i16 noundef zeroext %4) local_unnamed_addr #0 {
  %6 = alloca i32, align 4
  call void @llvm.lifetime.start.p0(i64 4, ptr nonnull %6) #10
  %7 = load i32, ptr %3, align 4, !tbaa !3
  %8 = icmp sgt i32 %7, 0
  br i1 %8, label %.lr.ph, label %.thread49

.lr.ph:                                           ; preds = %5
  %9 = getelementptr inbounds nuw i8, ptr %0, i64 128
  %10 = getelementptr inbounds nuw i8, ptr %0, i64 152
  %wide.trip.count = zext nneg i32 %7 to i64
  br label %11

11:                                               ; preds = %.lr.ph, %39
  %indvars.iv = phi i64 [ 0, %.lr.ph ], [ %indvars.iv.next, %39 ]
  store i32 1, ptr %6, align 4, !tbaa !3
  %12 = load i32, ptr %9, align 8, !tbaa !26
  %.not.i = icmp sgt i32 %12, 4
  br i1 %.not.i, label %pmix_pointer_array_get_item.exit, label %.thread, !prof !29

pmix_pointer_array_get_item.exit:                 ; preds = %11
  %13 = load ptr, ptr %10, align 8, !tbaa !30
  %14 = getelementptr inbounds nuw i8, ptr %13, i64 32
  %15 = load ptr, ptr %14, align 8, !tbaa !31
  %16 = icmp eq ptr %15, null
  br i1 %16, label %.thread, label %17

17:                                               ; preds = %pmix_pointer_array_get_item.exit
  %18 = getelementptr inbounds nuw i8, ptr %15, i64 144
  %19 = load ptr, ptr %18, align 8, !tbaa !32
  %20 = getelementptr inbounds nuw %struct.pmix_data_buffer, ptr %2, i64 %indvars.iv, i32 4
  %21 = call i32 %19(ptr noundef nonnull %0, ptr noundef %1, ptr noundef nonnull %20, ptr noundef nonnull %6, i16 noundef zeroext 4) #10
  switch i32 %21, label %.thread [
    i32 0, label %23
    i32 -2, label %.thread49
  ]

.thread:                                          ; preds = %11, %pmix_pointer_array_get_item.exit, %17
  %.03446 = phi i32 [ %21, %17 ], [ -16, %pmix_pointer_array_get_item.exit ], [ -16, %11 ]
  %22 = call ptr @PMIx_Error_string(i32 noundef %.03446) #10
  call void (i32, ptr, ...) @pmix_output(i32 noundef 0, ptr noundef nonnull @.str.6, ptr noundef %22, ptr noundef nonnull @.str.7, i32 noundef 2347) #10
  br label %.thread49

23:                                               ; preds = %17
  %24 = getelementptr inbounds nuw %struct.pmix_data_buffer, ptr %2, i64 %indvars.iv
  %25 = getelementptr inbounds nuw i8, ptr %24, i64 32
  %26 = load i64, ptr %25, align 8, !tbaa !157
  %.not38 = icmp eq i64 %26, 0
  br i1 %.not38, label %39, label %27

27:                                               ; preds = %23
  %28 = call noalias ptr @malloc(i64 noundef %26) #12
  store ptr %28, ptr %24, align 8, !tbaa !159
  %29 = trunc i64 %26 to i32
  store i32 %29, ptr %6, align 4, !tbaa !3
  %30 = load i32, ptr %9, align 8, !tbaa !26
  %.not.i41 = icmp sgt i32 %30, 2
  br i1 %.not.i41, label %pmix_pointer_array_get_item.exit43, label %.thread49, !prof !29

pmix_pointer_array_get_item.exit43:               ; preds = %27
  %31 = load ptr, ptr %10, align 8, !tbaa !30
  %32 = getelementptr inbounds nuw i8, ptr %31, i64 16
  %33 = load ptr, ptr %32, align 8, !tbaa !31
  %34 = icmp eq ptr %33, null
  br i1 %34, label %.thread49, label %35

35:                                               ; preds = %pmix_pointer_array_get_item.exit43
  %36 = getelementptr inbounds nuw i8, ptr %33, i64 144
  %37 = load ptr, ptr %36, align 8, !tbaa !32
  %38 = call i32 %37(ptr noundef nonnull %0, ptr noundef %1, ptr noundef %28, ptr noundef nonnull %6, i16 noundef zeroext 2) #10
  %.not39 = icmp eq i32 %38, 0
  br i1 %.not39, label %39, label %.thread49

39:                                               ; preds = %23, %35
  %indvars.iv.next = add nuw nsw i64 %indvars.iv, 1
  %exitcond.not = icmp eq i64 %indvars.iv.next, %wide.trip.count
  br i1 %exitcond.not, label %.thread49, label %11, !llvm.loop !160

.thread49:                                        ; preds = %17, %35, %39, %pmix_pointer_array_get_item.exit43, %27, %5, %.thread
  %.0 = phi i32 [ %.03446, %.thread ], [ 0, %5 ], [ %21, %17 ], [ %38, %35 ], [ 0, %39 ], [ -16, %pmix_pointer_array_get_item.exit43 ], [ -16, %27 ]
  call void @llvm.lifetime.end.p0(i64 4, ptr nonnull %6) #10
  ret i32 %.0
}